; Function Attrs: mustprogress uwtable
define dso_local void @__cxa_vec_ctor(ptr noundef %0, i64 noundef %1, i64 noundef %2, ptr noundef readonly captures(address_is_null) %3, ptr noundef %4) local_unnamed_addr #0 personality ptr @__gxx_personality_v0 {
  %6 = alloca i64, align 8
  %7 = alloca %"class.__cxxabiv1::(anonymous namespace)::st_cxa_cleanup", align 8
  %.not = icmp eq ptr %3, null
  br i1 %.not, label %20, label %8

8:                                                ; preds = %5
  call void @llvm.lifetime.start.p0(i64 8, ptr nonnull %6) #12
  call void @llvm.lifetime.start.p0(i64 40, ptr nonnull %7) #12
  store ptr %0, ptr %7, align 8, !tbaa !8
  %9 = getelementptr inbounds nuw i8, ptr %7, i64 8
  store ptr %6, ptr %9, align 8, !tbaa !13
  %10 = getelementptr inbounds nuw i8, ptr %7, i64 16
  store i64 %2, ptr %10, align 8, !tbaa !14
  %11 = getelementptr inbounds nuw i8, ptr %7, i64 24
  store ptr %4, ptr %11, align 8, !tbaa !15
  %12 = getelementptr inbounds nuw i8, ptr %7, i64 32
  store i8 1, ptr %12, align 8, !tbaa !16
  store i64 0, ptr %6, align 8, !tbaa !4
  %.not13 = icmp eq i64 %1, 0
  br i1 %.not13, label %_ZN10__cxxabiv112_GLOBAL__N_114st_cxa_cleanupD2Ev.exit, label %.lr.ph

.lr.ph:                                           ; preds = %8, %13
  %.012 = phi ptr [ %16, %13 ], [ %0, %8 ]
  invoke void %3(ptr noundef %.012)
          to label %13 unwind label %18

13:                                               ; preds = %.lr.ph
  %14 = load i64, ptr %6, align 8, !tbaa !4
  %15 = add i64 %14, 1
  store i64 %15, ptr %6, align 8, !tbaa !4
  %16 = getelementptr inbounds nuw i8, ptr %.012, i64 %2
  %17 = icmp ult i64 %15, %1
  br i1 %17, label %.lr.ph, label %_ZN10__cxxabiv112_GLOBAL__N_114st_cxa_cleanupD2Ev.exit, !llvm.loop !17

18:                                               ; preds = %.lr.ph
  %19 = landingpad { ptr, i32 }
          cleanup
  call fastcc void @_ZN10__cxxabiv112_GLOBAL__N_114st_cxa_cleanupD2Ev(ptr noundef nonnull align 8 dereferenceable(33) %7) #12
  call void @llvm.lifetime.end.p0(i64 40, ptr nonnull %7) #12
  call void @llvm.lifetime.end.p0(i64 8, ptr nonnull %6) #12
  resume { ptr, i32 } %19

_ZN10__cxxabiv112_GLOBAL__N_114st_cxa_cleanupD2Ev.exit: ; preds = %13, %8
  call void @llvm.lifetime.end.p0(i64 40, ptr nonnull %7) #12
  call void @llvm.lifetime.end.p0(i64 8, ptr nonnull %6) #12
  br label %20

20:                                               ; preds = %_ZN10__cxxabiv112_GLOBAL__N_114st_cxa_cleanupD2Ev.exit, %5
  ret void
}